; Function Attrs: mustprogress nofree norecurse nosync nounwind memory(readwrite, inaccessiblemem: none) uwtable
define void @_ZN5Ipopt11DenseVector25ElementWiseReciprocalImplEv(ptr nocapture noundef nonnull align 8 dereferenceable(248) %0) unnamed_addr #8 align 2 {
  %2 = getelementptr inbounds i8, ptr %0, i64 56
  %3 = load ptr, ptr %2, align 8
  %4 = getelementptr inbounds i8, ptr %3, i64 12
  %5 = load i32, ptr %4, align 4
  %6 = icmp eq i32 %5, 0
  br i1 %6, label %.loopexit, label %7

7:                                                ; preds = %1
  %8 = getelementptr inbounds i8, ptr %0, i64 233
  %9 = load i8, ptr %8, align 1
  %10 = and i8 %9, 1
  %.not = icmp eq i8 %10, 0
  br i1 %.not, label %.preheader, label %13

.preheader:                                       ; preds = %7
  %11 = icmp sgt i32 %5, 0
  br i1 %11, label %.lr.ph, label %.loopexit

.lr.ph:                                           ; preds = %.preheader
  %12 = getelementptr inbounds i8, ptr %0, i64 216
  br label %17

13:                                               ; preds = %7
  %14 = getelementptr inbounds i8, ptr %0, i64 240
  %15 = load double, ptr %14, align 8
  %16 = fdiv double 1.000000e+00, %15
  store double %16, ptr %14, align 8
  br label %.loopexit

17:                                               ; preds = %.lr.ph, %17
  %indvars.iv = phi i64 [ 0, %.lr.ph ], [ %indvars.iv.next, %17 ]
  %18 = load ptr, ptr %12, align 8
  %19 = getelementptr inbounds double, ptr %18, i64 %indvars.iv
  %20 = load double, ptr %19, align 8
  %21 = fdiv double 1.000000e+00, %20
  store double %21, ptr %19, align 8
  %indvars.iv.next = add nuw nsw i64 %indvars.iv, 1
  %22 = load ptr, ptr %2, align 8
  %23 = getelementptr inbounds i8, ptr %22, i64 12
  %24 = load i32, ptr %23, align 4
  %25 = sext i32 %24 to i64
  %26 = icmp slt i64 %indvars.iv.next, %25
  br i1 %26, label %17, label %.loopexit, !llvm.loop !23

.loopexit:                                        ; preds = %17, %.preheader, %1, %13
  ret void
}